target datalayout = "e-m:e-p270:32:32-p271:32:32-p272:64:64-i64:64-i128:128-f80:128-n8:16:32:64-S128"
target triple = "x86_64-pc-linux-gnu"

%struct._object = type { %union.anon, ptr }
%union.anon = type { i64 }
%struct.PyVarObject = type { %struct._object, i64 }

@PyExc_TypeError = external global ptr, align 8
@.str.79 = private unnamed_addr constant [2 x i8] c"s\00", align 1
@.str.80 = private unnamed_addr constant [22 x i8] c"name must be a string\00", align 1

; Function Attrs: inlinehint nounwind uwtable
define internal i64 @Py_SIZE(ptr noundef %0) #4 {
  %2 = alloca ptr, align 8
  store ptr %0, ptr %2, align 8, !tbaa !14
  %3 = load ptr, ptr %2, align 8, !tbaa !14
  %4 = getelementptr inbounds nuw %struct.PyVarObject, ptr %3, i32 0, i32 1
  %5 = load i64, ptr %4, align 8, !tbaa !68
  ret i64 %5
}

; Function Attrs: nounwind uwtable
define internal ptr @EVP_new_impl(ptr noundef %0, ptr noundef %1, ptr noundef %2, i32 noundef %3) #0 {
  %5 = alloca ptr, align 8
  %6 = alloca ptr, align 8
  %7 = alloca ptr, align 8
  %8 = alloca ptr, align 8
  %9 = alloca i32, align 4
  %10 = alloca ptr, align 8
  %11 = alloca i32, align 4
  store ptr %0, ptr %6, align 8, !tbaa !14
  store ptr %1, ptr %7, align 8, !tbaa !14
  store ptr %2, ptr %8, align 8, !tbaa !14
  store i32 %3, ptr %9, align 4, !tbaa !19
  call void @llvm.lifetime.start.p0(i64 8, ptr %10) #9
  %12 = load ptr, ptr %7, align 8, !tbaa !14
  %13 = call i32 (ptr, ptr, ...) @PyArg_Parse(ptr noundef %12, ptr noundef @.str.79, ptr noundef %10)
  %14 = icmp ne i32 %13, 0
  br i1 %14, label %17, label %15

15:                                               ; preds = %4
  %16 = load ptr, ptr @PyExc_TypeError, align 8, !tbaa !14
  call void @PyErr_SetString(ptr noundef %16, ptr noundef @.str.80)
  store ptr null, ptr %5, align 8
  store i32 1, ptr %11, align 4
  br label %23

17:                                               ; preds = %4
  %18 = load ptr, ptr %6, align 8, !tbaa !14
  %19 = load ptr, ptr %10, align 8, !tbaa !21
  %20 = load ptr, ptr %8, align 8, !tbaa !14
  %21 = load i32, ptr %9, align 4, !tbaa !19
  %22 = call ptr @py_evp_fromname(ptr noundef %18, ptr noundef %19, ptr noundef %20, i32 noundef %21)
  store ptr %22, ptr %5, align 8
  store i32 1, ptr %11, align 4
  br label %23

23:                                               ; preds = %17, %15
  call void @llvm.lifetime.end.p0(i64 8, ptr %10) #9
  %24 = load ptr, ptr %5, align 8
  ret ptr %24
}

; Function Attrs: inlinehint nounwind uwtable
define internal i64 @PyTuple_GET_SIZE(ptr noundef %0) #4 {
  %2 = alloca ptr, align 8
  %3 = alloca ptr, align 8
  store ptr %0, ptr %2, align 8, !tbaa !14
  call void @llvm.lifetime.start.p0(i64 8, ptr %3) #9
  %4 = load ptr, ptr %2, align 8, !tbaa !14
  store ptr %4, ptr %3, align 8, !tbaa !3
  %5 = load ptr, ptr %3, align 8, !tbaa !3
  %6 = call i64 @Py_SIZE(ptr noundef %5)
  call void @llvm.lifetime.end.p0(i64 8, ptr %3) #9
  ret i64 %6
}

; Function Attrs: nounwind uwtable
define internal ptr @EVP_new(ptr noundef %0, ptr noundef %1, i64 noundef %2, ptr noundef %3) #0 {
  %5 = alloca ptr, align 8
  %6 = alloca ptr, align 8
  %7 = alloca i64, align 8
  %8 = alloca ptr, align 8
  %9 = alloca ptr, align 8
  %10 = alloca [3 x ptr], align 16
  %11 = alloca i64, align 8
  %12 = alloca ptr, align 8
  %13 = alloca ptr, align 8
  %14 = alloca i32, align 4
  store ptr %0, ptr %5, align 8, !tbaa !14
  store ptr %1, ptr %6, align 8, !tbaa !30
  store i64 %2, ptr %7, align 8, !tbaa !32
  store ptr %3, ptr %8, align 8, !tbaa !14
  call void @llvm.lifetime.start.p0(i64 8, ptr %9) #9
  store ptr null, ptr %9, align 8, !tbaa !14
  call void @llvm.lifetime.start.p0(i64 24, ptr %10) #9
  call void @llvm.lifetime.start.p0(i64 8, ptr %11) #9
  %15 = load i64, ptr %7, align 8, !tbaa !32
  %16 = load ptr, ptr %8, align 8, !tbaa !14
  %17 = icmp ne ptr %16, null
  br i1 %17, label %18, label %21

18:                                               ; preds = %4
  %19 = load ptr, ptr %8, align 8, !tbaa !14
  %20 = call i64 @PyTuple_GET_SIZE(ptr noundef %19)
  br label %22

21:                                               ; preds = %4
  br label %22

22:                                               ; preds = %21, %18
  %23 = phi i64 [ %20, %18 ], [ 0, %21 ]
  %24 = add i64 %15, %23
  %25 = sub i64 %24, 1
  store i64 %25, ptr %11, align 8, !tbaa !32
  call void @llvm.lifetime.start.p0(i64 8, ptr %12) #9
  call void @llvm.lifetime.start.p0(i64 8, ptr %13) #9
  store ptr null, ptr %13, align 8, !tbaa !14
  call void @llvm.lifetime.start.p0(i64 4, ptr %14) #9
  store i32 1, ptr %14, align 4, !tbaa !19
  %26 = load ptr, ptr %8, align 8, !tbaa !14
  %27 = icmp eq ptr %26, null
  br i1 %27, label %28, label %39

28:                                               ; preds = %22
  %29 = load i64, ptr %7, align 8, !tbaa !32
  %30 = icmp sle i64 1, %29
  br i1 %30, label %31, label %39

31:                                               ; preds = %28
  %32 = load i64, ptr %7, align 8, !tbaa !32
  %33 = icmp sle i64 %32, 2
  br i1 %33, label %34, label %39

34:                                               ; preds = %31
  %35 = load ptr, ptr %6, align 8, !tbaa !30
  %36 = icmp ne ptr %35, null
  br i1 %36, label %37, label %39

37:                                               ; preds = %34
  %38 = load ptr, ptr %6, align 8, !tbaa !30
  br label %45

39:                                               ; preds = %34, %31, %28, %22
  %40 = load ptr, ptr %6, align 8, !tbaa !30
  %41 = load i64, ptr %7, align 8, !tbaa !32
  %42 = load ptr, ptr %8, align 8, !tbaa !14
  %43 = getelementptr inbounds [3 x ptr], ptr %10, i64 0, i64 0
  %44 = call ptr @_PyArg_UnpackKeywords(ptr noundef %40, i64 noundef %41, ptr noundef null, ptr noundef %42, ptr noundef @EVP_new._parser, i32 noundef 1, i32 noundef 2, i32 noundef 0, i32 noundef 0, ptr noundef %43)
  br label %45

45:                                               ; preds = %39, %37
  %46 = phi ptr [ %38, %37 ], [ %44, %39 ]
  store ptr %46, ptr %6, align 8, !tbaa !30
  %47 = load ptr, ptr %6, align 8, !tbaa !30
  %48 = icmp ne ptr %47, null
  br i1 %48, label %50, label %49

49:                                               ; preds = %45
  br label %91

50:                                               ; preds = %45
  %51 = load ptr, ptr %6, align 8, !tbaa !30
  %52 = getelementptr ptr, ptr %51, i64 0
  %53 = load ptr, ptr %52, align 8, !tbaa !14
  store ptr %53, ptr %12, align 8, !tbaa !14
  %54 = load i64, ptr %11, align 8, !tbaa !32
  %55 = icmp ne i64 %54, 0
  br i1 %55, label %57, label %56

56:                                               ; preds = %50
  br label %72

57:                                               ; preds = %50
  %58 = load ptr, ptr %6, align 8, !tbaa !30
  %59 = getelementptr ptr, ptr %58, i64 1
  %60 = load ptr, ptr %59, align 8, !tbaa !14
  %61 = icmp ne ptr %60, null
  br i1 %61, label %62, label %71

62:                                               ; preds = %57
  %63 = load ptr, ptr %6, align 8, !tbaa !30
  %64 = getelementptr ptr, ptr %63, i64 1
  %65 = load ptr, ptr %64, align 8, !tbaa !14
  store ptr %65, ptr %13, align 8, !tbaa !14
  %66 = load i64, ptr %11, align 8, !tbaa !32
  %67 = add i64 %66, -1
  store i64 %67, ptr %11, align 8, !tbaa !32
  %68 = icmp ne i64 %67, 0
  br i1 %68, label %70, label %69

69:                                               ; preds = %62
  br label %72

70:                                               ; preds = %62
  br label %71

71:                                               ; preds = %70, %57
  br label %72

72:                                               ; preds = %71, %69, %56
  %73 = load i64, ptr %11, align 8, !tbaa !32
  %74 = icmp ne i64 %73, 0
  br i1 %74, label %76, label %75

75:                                               ; preds = %72
  br label %85

76:                                               ; preds = %72
  %77 = load ptr, ptr %6, align 8, !tbaa !30
  %78 = getelementptr ptr, ptr %77, i64 2
  %79 = load ptr, ptr %78, align 8, !tbaa !14
  %80 = call i32 @PyObject_IsTrue(ptr noundef %79)
  store i32 %80, ptr %14, align 4, !tbaa !19
  %81 = load i32, ptr %14, align 4, !tbaa !19
  %82 = icmp slt i32 %81, 0
  br i1 %82, label %83, label %84

83:                                               ; preds = %76
  br label %91

84:                                               ; preds = %76
  br label %85

85:                                               ; preds = %84, %75
  %86 = load ptr, ptr %5, align 8, !tbaa !14
  %87 = load ptr, ptr %12, align 8, !tbaa !14
  %88 = load ptr, ptr %13, align 8, !tbaa !14
  %89 = load i32, ptr %14, align 4, !tbaa !19
  %90 = call ptr @EVP_new_impl(ptr noundef %86, ptr noundef %87, ptr noundef %88, i32 noundef %89)
  store ptr %90, ptr %9, align 8, !tbaa !14
  br label %91

91:                                               ; preds = %85, %83, %49
  %92 = load ptr, ptr %9, align 8, !tbaa !14
  call void @llvm.lifetime.end.p0(i64 4, ptr %14) #9
  call void @llvm.lifetime.end.p0(i64 8, ptr %13) #9
  call void @llvm.lifetime.end.p0(i64 8, ptr %12) #9
  call void @llvm.lifetime.end.p0(i64 8, ptr %11) #9
  call void @llvm.lifetime.end.p0(i64 24, ptr %10) #9
  call void @llvm.lifetime.end.p0(i64 8, ptr %9) #9
  ret ptr %92
}