; Function Attrs: nounwind uwtable
define internal ptr @EVP_new(ptr noundef %0, ptr noundef %1, i64 noundef %2, ptr noundef %3) #0 {
  %5 = alloca ptr, align 8
  %6 = alloca [3 x ptr], align 16
  call void @llvm.lifetime.start.p0(i64 24, ptr nonnull %6) #9
  %.not = icmp eq ptr %3, null
  br i1 %.not, label %9, label %.thread

.thread:                                          ; preds = %4
  %7 = getelementptr i8, ptr %3, i64 16
  %.val = load i64, ptr %7, align 8, !tbaa !51
  %8 = add i64 %.val, %2
  br label %13

9:                                                ; preds = %4
  %10 = add i64 %2, -1
  %11 = icmp ult i64 %10, 2
  %12 = icmp ne ptr %1, null
  %or.cond5 = and i1 %12, %11
  br i1 %or.cond5, label %.thread45, label %13

13:                                               ; preds = %9, %.thread
  %14 = phi i64 [ %8, %.thread ], [ %2, %9 ]
  %15 = call ptr @_PyArg_UnpackKeywords(ptr noundef %1, i64 noundef %2, ptr noundef null, ptr noundef %3, ptr noundef nonnull @EVP_new._parser, i32 noundef 1, i32 noundef 2, i32 noundef 0, i32 noundef 0, ptr noundef nonnull %6) #9
  %.not38 = icmp eq ptr %15, null
  br i1 %.not38, label %34, label %.thread45

.thread45:                                        ; preds = %9, %13
  %16 = phi ptr [ %15, %13 ], [ %1, %9 ]
  %17 = phi i64 [ %14, %13 ], [ %2, %9 ]
  %18 = load ptr, ptr %16, align 8, !tbaa !23
  %.not39 = icmp eq i64 %17, 1
  br i1 %.not39, label %.thread47, label %19

19:                                               ; preds = %.thread45
  %20 = getelementptr i8, ptr %16, i64 8
  %21 = load ptr, ptr %20, align 8, !tbaa !23
  %.not40 = icmp ne ptr %21, null
  %22 = icmp eq i64 %17, 2
  %spec.select = and i1 %22, %.not40
  br i1 %spec.select, label %.thread47, label %23

23:                                               ; preds = %19
  %24 = getelementptr i8, ptr %16, i64 16
  %25 = load ptr, ptr %24, align 8, !tbaa !23
  %26 = call i32 @PyObject_IsTrue(ptr noundef %25) #9
  %27 = icmp slt i32 %26, 0
  br i1 %27, label %34, label %.thread47

.thread47:                                        ; preds = %.thread45, %23, %19
  %.02950 = phi ptr [ %21, %23 ], [ %21, %19 ], [ null, %.thread45 ]
  %.0 = phi i32 [ %26, %23 ], [ 1, %19 ], [ 1, %.thread45 ]
  call void @llvm.lifetime.start.p0(i64 8, ptr nonnull %5) #9
  %28 = call i32 (ptr, ptr, ...) @PyArg_Parse(ptr noundef %18, ptr noundef nonnull @.str.79, ptr noundef nonnull %5) #9
  %.not.i = icmp eq i32 %28, 0
  br i1 %.not.i, label %29, label %31

29:                                               ; preds = %.thread47
  %30 = load ptr, ptr @PyExc_TypeError, align 8, !tbaa !23
  call void @PyErr_SetString(ptr noundef %30, ptr noundef nonnull @.str.80) #9
  br label %EVP_new_impl.exit

31:                                               ; preds = %.thread47
  %32 = load ptr, ptr %5, align 8, !tbaa !52
  %33 = call fastcc ptr @py_evp_fromname(ptr noundef %0, ptr noundef %32, ptr noundef %.02950, i32 noundef range(i32 0, -2147483648) %.0)
  br label %EVP_new_impl.exit

EVP_new_impl.exit:                                ; preds = %29, %31
  %.0.i = phi ptr [ %33, %31 ], [ null, %29 ]
  call void @llvm.lifetime.end.p0(i64 8, ptr nonnull %5) #9
  br label %34

34:                                               ; preds = %23, %13, %EVP_new_impl.exit
  %.031 = phi ptr [ null, %23 ], [ %.0.i, %EVP_new_impl.exit ], [ null, %13 ]
  call void @llvm.lifetime.end.p0(i64 24, ptr nonnull %6) #9
  ret ptr %.031
}